target datalayout = "e-m:e-p270:32:32-p271:32:32-p272:64:64-i64:64-i128:128-f80:128-n8:16:32:64-S128"
target triple = "x86_64-pc-linux-gnu"

%struct.Scl_Tree_t_ = type { ptr, ptr, i64, i32, i32, i32, ptr, ptr, i64, ptr }

@stdout = external global ptr, align 8
@.str.6 = private unnamed_addr constant [2 x i8] c"w\00", align 1
@.str.7 = private unnamed_addr constant [74 x i8] c"Scl_LibertyParseDump(): The output file is unavailable (absent or open).\0A\00", align 1

; Function Attrs: nounwind uwtable
define internal ptr @Scl_LibertyRoot(ptr noundef %0) #0 {
  %2 = alloca ptr, align 8
  store ptr %0, ptr %2, align 8
  %3 = load ptr, ptr %2, align 8
  %4 = getelementptr inbounds %struct.Scl_Tree_t_, ptr %3, i32 0, i32 6
  %5 = load ptr, ptr %4, align 8
  ret ptr %5
}

; Function Attrs: nounwind uwtable
define i32 @Scl_LibertyParseDump(ptr noundef %0, ptr noundef %1) #0 {
  %3 = alloca i32, align 4
  %4 = alloca ptr, align 8
  %5 = alloca ptr, align 8
  %6 = alloca ptr, align 8
  store ptr %0, ptr %4, align 8
  store ptr %1, ptr %5, align 8
  %7 = load ptr, ptr %5, align 8
  %8 = icmp eq ptr %7, null
  br i1 %8, label %9, label %11

9:                                                ; preds = %2
  %10 = load ptr, ptr @stdout, align 8
  store ptr %10, ptr %6, align 8
  br label %19

11:                                               ; preds = %2
  %12 = load ptr, ptr %5, align 8
  %13 = call noalias ptr @fopen(ptr noundef %12, ptr noundef @.str.6)
  store ptr %13, ptr %6, align 8
  %14 = load ptr, ptr %6, align 8
  %15 = icmp eq ptr %14, null
  br i1 %15, label %16, label %18

16:                                               ; preds = %11
  %17 = call i32 (ptr, ...) @printf(ptr noundef @.str.7)
  store i32 0, ptr %3, align 4
  br label %31

18:                                               ; preds = %11
  br label %19

19:                                               ; preds = %18, %9
  %20 = load ptr, ptr %6, align 8
  %21 = load ptr, ptr %4, align 8
  %22 = load ptr, ptr %4, align 8
  %23 = call ptr @Scl_LibertyRoot(ptr noundef %22)
  call void @Scl_LibertyParseDumpItem(ptr noundef %20, ptr noundef %21, ptr noundef %23, i32 noundef 0)
  %24 = load ptr, ptr %6, align 8
  %25 = load ptr, ptr @stdout, align 8
  %26 = icmp ne ptr %24, %25
  br i1 %26, label %27, label %30

27:                                               ; preds = %19
  %28 = load ptr, ptr %6, align 8
  %29 = call i32 @fclose(ptr noundef %28)
  br label %30

30:                                               ; preds = %27, %19
  store i32 1, ptr %3, align 4
  br label %31

31:                                               ; preds = %30, %16
  %32 = load i32, ptr %3, align 4
  ret i32 %32
}