; Function Attrs: nofree nounwind uwtable
define range(i32 0, 2) i32 @Scl_LibertyParseDump(ptr noundef readonly captures(none) %0, ptr noundef readonly %1) local_unnamed_addr #0 {
  %3 = icmp eq ptr %1, null
  br i1 %3, label %4, label %6

4:                                                ; preds = %2
  %5 = load ptr, ptr @stdout, align 8
  br label %10

6:                                                ; preds = %2
  %7 = tail call noalias ptr @fopen(ptr noundef nonnull %1, ptr noundef nonnull @.str.6)
  %8 = icmp eq ptr %7, null
  br i1 %8, label %9, label %10

9:                                                ; preds = %6
  %puts = tail call i32 @puts(ptr nonnull dereferenceable(1) @str)
  br label %15

10:                                               ; preds = %6, %4
  %.0 = phi ptr [ %5, %4 ], [ %7, %6 ]
  %11 = getelementptr i8, ptr %0, i64 40
  %.val = load ptr, ptr %11, align 8
  tail call void @Scl_LibertyParseDumpItem(ptr noundef %.0, ptr noundef %0, ptr noundef %.val, i32 noundef 0)
  %12 = load ptr, ptr @stdout, align 8
  %.not = icmp eq ptr %.0, %12
  br i1 %.not, label %15, label %13

13:                                               ; preds = %10
  %14 = tail call i32 @fclose(ptr noundef %.0)
  br label %15

15:                                               ; preds = %10, %13, %9
  %.08 = phi i32 [ 0, %9 ], [ 1, %13 ], [ 1, %10 ]
  ret i32 %.08
}